; Function Attrs: mustprogress nofree norecurse nosync nounwind willreturn memory(none) uwtable
define noundef float @_Z14GetElapsedTimeN3vcg6Point3IfEES1_S1_f(<2 x float> %0, float %1, <2 x float> %2, float %3, <2 x float> %4, float %5, float noundef %6) local_unnamed_addr #15 {
  %8 = insertelement <2 x float> poison, float %1, i64 0
  %9 = insertelement <2 x float> %8, float %3, i64 1
  %10 = insertelement <2 x float> poison, float %3, i64 0
  %11 = insertelement <2 x float> %10, float %5, i64 1
  %12 = fsub <2 x float> %9, %11
  %13 = shufflevector <2 x float> %0, <2 x float> %2, <2 x i32> <i32 0, i32 2>
  %14 = shufflevector <2 x float> %2, <2 x float> %4, <2 x i32> <i32 0, i32 2>
  %15 = fsub <2 x float> %13, %14
  %16 = shufflevector <2 x float> %0, <2 x float> %2, <2 x i32> <i32 1, i32 3>
  %17 = shufflevector <2 x float> %2, <2 x float> %4, <2 x i32> <i32 1, i32 3>
  %18 = fsub <2 x float> %16, %17
  %19 = fmul <2 x float> %18, %18
  %20 = tail call <2 x float> @llvm.fmuladd.v2f32(<2 x float> %15, <2 x float> %15, <2 x float> %19)
  %21 = tail call <2 x float> @llvm.fmuladd.v2f32(<2 x float> %12, <2 x float> %12, <2 x float> %20)
  %22 = tail call <2 x float> @llvm.sqrt.v2f32(<2 x float> %21)
  %23 = extractelement <2 x float> %22, i64 0
  %shift = shufflevector <2 x float> %22, <2 x float> poison, <2 x i32> <i32 1, i32 poison>
  %24 = fadd <2 x float> %22, %shift
  %25 = extractelement <2 x float> %24, i64 0
  %26 = fcmp oeq float %25, 0.000000e+00
  %27 = fdiv float %23, %25
  %28 = fmul float %27, %6
  %.0 = select i1 %26, float 0.000000e+00, float %28
  ret float %.0
}